target datalayout = "e-m:e-p270:32:32-p271:32:32-p272:64:64-i64:64-i128:128-f80:128-n8:16:32:64-S128"
target triple = "x86_64-pc-linux-gnu"

%"class.clang::SourceLocation" = type { i32 }
%"class.llvm::SmallVectorBase" = type { ptr, i32, i32 }
%"class.clang::ParsedAttributesView" = type { %"class.clang::SourceRange", %"class.llvm::SmallVector.654" }
%"class.llvm::SmallVector.654" = type { %"class.llvm::SmallVectorImpl.655", %"struct.llvm::SmallVectorStorage.658" }
%"class.llvm::SmallVectorImpl.655" = type { %"class.llvm::SmallVectorTemplateBase.656" }
%"class.llvm::SmallVectorTemplateBase.656" = type { %"class.llvm::SmallVectorTemplateCommon.657" }
%"class.llvm::SmallVectorTemplateCommon.657" = type { %"class.llvm::SmallVectorBase" }
%"struct.llvm::SmallVectorStorage.658" = type { [48 x i8] }
%"class.clang::SourceRange" = type { %"class.clang::SourceLocation", %"class.clang::SourceLocation" }
%class.anon.1920 = type { i32 }

; Function Attrs: mustprogress nounwind uwtable
define linkonce_odr hidden noundef zeroext i1 @_ZNK5clang20ParsedAttributesView12hasAttributeENS_19AttributeCommonInfo4KindE(ptr noundef nonnull align 8 dereferenceable(72) %0, i32 noundef %1) #0 comdat align 2 {
  %3 = alloca ptr, align 8
  %4 = alloca i32, align 4
  %5 = alloca %class.anon.1920, align 4
  store ptr %0, ptr %3, align 8
  store i32 %1, ptr %4, align 4
  %6 = load ptr, ptr %3, align 8
  %7 = getelementptr inbounds nuw %"class.clang::ParsedAttributesView", ptr %6, i32 0, i32 1
  %8 = getelementptr inbounds nuw %class.anon.1920, ptr %5, i32 0, i32 0
  %9 = load i32, ptr %4, align 4
  store i32 %9, ptr %8, align 4
  %10 = getelementptr inbounds nuw %class.anon.1920, ptr %5, i32 0, i32 0
  %11 = load i32, ptr %10, align 4
  %12 = call noundef zeroext i1 @_ZN4llvm6any_ofIRKNS_11SmallVectorIPN5clang10ParsedAttrELj6EEEZNKS2_20ParsedAttributesView12hasAttributeENS2_19AttributeCommonInfo4KindEEUlPKS3_E_EEbOT_T0_(ptr noundef nonnull align 8 dereferenceable(64) %7, i32 %11)
  ret i1 %12
}

; Function Attrs: mustprogress nounwind uwtable
define internal noundef zeroext i1 @"_ZZL24GetFullTypeForDeclaratorRN12_GLOBAL__N_119TypeProcessingStateEN5clang8QualTypeEPNS2_14TypeSourceInfoEENK3$_3clERKNS2_20ParsedAttributesViewE"(ptr noundef nonnull align 1 dereferenceable(1) %0, ptr noundef nonnull align 8 dereferenceable(72) %1) #0 align 2 {
  %3 = alloca ptr, align 8
  %4 = alloca ptr, align 8
  store ptr %0, ptr %3, align 8
  store ptr %1, ptr %4, align 8
  %5 = load ptr, ptr %4, align 8
  %6 = call noundef zeroext i1 @_ZNK5clang20ParsedAttributesView12hasAttributeENS_19AttributeCommonInfo4KindE(ptr noundef nonnull align 8 dereferenceable(72) %5, i32 noundef 63)
  br i1 %6, label %10, label %7

7:                                                ; preds = %2
  %8 = load ptr, ptr %4, align 8
  %9 = call noundef zeroext i1 @_ZNK5clang20ParsedAttributesView12hasAttributeENS_19AttributeCommonInfo4KindE(ptr noundef nonnull align 8 dereferenceable(72) %8, i32 noundef 62)
  br label %10

10:                                               ; preds = %7, %2
  %11 = phi i1 [ true, %2 ], [ %9, %7 ]
  ret i1 %11
}