; Function Attrs: mustprogress nounwind uwtable
define internal fastcc noundef zeroext i1 @"_ZZL24GetFullTypeForDeclaratorRN12_GLOBAL__N_119TypeProcessingStateEN5clang8QualTypeEPNS2_14TypeSourceInfoEENK3$_3clERKNS2_20ParsedAttributesViewE"(ptr noundef nonnull align 8 dereferenceable(72) %0) unnamed_addr #0 align 2 {
  %2 = getelementptr inbounds nuw i8, ptr %0, i64 8
  %3 = tail call noundef zeroext i1 @_ZN4llvm6any_ofIRKNS_11SmallVectorIPN5clang10ParsedAttrELj6EEEZNKS2_20ParsedAttributesView12hasAttributeENS2_19AttributeCommonInfo4KindEEUlPKS3_E_EEbOT_T0_(ptr noundef nonnull align 8 dereferenceable(64) %2, i32 63)
  br i1 %3, label %6, label %4

4:                                                ; preds = %1
  %5 = tail call noundef zeroext i1 @_ZN4llvm6any_ofIRKNS_11SmallVectorIPN5clang10ParsedAttrELj6EEEZNKS2_20ParsedAttributesView12hasAttributeENS2_19AttributeCommonInfo4KindEEUlPKS3_E_EEbOT_T0_(ptr noundef nonnull align 8 dereferenceable(64) %2, i32 62)
  br label %6

6:                                                ; preds = %4, %1
  %7 = phi i1 [ true, %1 ], [ %5, %4 ]
  ret i1 %7
}